target datalayout = "e-m:e-p270:32:32-p271:32:32-p272:64:64-i64:64-i128:128-f80:128-n8:16:32:64-S128"
target triple = "x86_64-pc-linux-gnu"

@hf_control_cs_terminate_config_id = internal global i32 0, align 4
@hf_control_cs_terminate_rfu = internal global i32 0, align 4
@hf_control_cs_terminate_proc_count = internal global i32 0, align 4
@hf_control_cs_terminate_error_code = internal global i32 0, align 4

; Function Attrs: null_pointer_is_valid sspstrong uwtable
define internal i32 @dissect_cs_terminate_req_and_rsp(ptr noundef %0, ptr noundef %1, i32 noundef %2) #0 {
  %4 = alloca ptr, align 8
  %5 = alloca ptr, align 8
  %6 = alloca i32, align 4
  store ptr %0, ptr %4, align 8
  store ptr %1, ptr %5, align 8
  store i32 %2, ptr %6, align 4
  %7 = load ptr, ptr %5, align 8
  %8 = load i32, ptr @hf_control_cs_terminate_config_id, align 4
  %9 = load ptr, ptr %4, align 8
  %10 = load i32, ptr %6, align 4
  %11 = call ptr @proto_tree_add_item(ptr noundef %7, i32 noundef %8, ptr noundef %9, i32 noundef %10, i32 noundef 1, i32 noundef -2147483648)
  %12 = load ptr, ptr %5, align 8
  %13 = load i32, ptr @hf_control_cs_terminate_rfu, align 4
  %14 = load ptr, ptr %4, align 8
  %15 = load i32, ptr %6, align 4
  %16 = call ptr @proto_tree_add_item(ptr noundef %12, i32 noundef %13, ptr noundef %14, i32 noundef %15, i32 noundef 1, i32 noundef -2147483648)
  %17 = load i32, ptr %6, align 4
  %18 = add i32 %17, 1
  store i32 %18, ptr %6, align 4
  %19 = load ptr, ptr %5, align 8
  %20 = load i32, ptr @hf_control_cs_terminate_proc_count, align 4
  %21 = load ptr, ptr %4, align 8
  %22 = load i32, ptr %6, align 4
  %23 = call ptr @proto_tree_add_item(ptr noundef %19, i32 noundef %20, ptr noundef %21, i32 noundef %22, i32 noundef 2, i32 noundef -2147483648)
  %24 = load i32, ptr %6, align 4
  %25 = add i32 %24, 2
  store i32 %25, ptr %6, align 4
  %26 = load ptr, ptr %5, align 8
  %27 = load i32, ptr @hf_control_cs_terminate_error_code, align 4
  %28 = load ptr, ptr %4, align 8
  %29 = load i32, ptr %6, align 4
  %30 = call ptr @proto_tree_add_item(ptr noundef %26, i32 noundef %27, ptr noundef %28, i32 noundef %29, i32 noundef 1, i32 noundef -2147483648)
  %31 = load i32, ptr %6, align 4
  %32 = add i32 %31, 1
  store i32 %32, ptr %6, align 4
  %33 = load i32, ptr %6, align 4
  ret i32 %33
}