; Function Attrs: null_pointer_is_valid sspstrong uwtable
define internal fastcc range(i32 7, 9) i32 @dissect_cs_terminate_req_and_rsp(ptr noundef %0, ptr noundef %1, i32 noundef range(i32 3, 5) %2) unnamed_addr #0 {
  %4 = load i32, ptr @hf_control_cs_terminate_config_id, align 4
  %5 = tail call ptr @proto_tree_add_item(ptr noundef %1, i32 noundef %4, ptr noundef %0, i32 noundef %2, i32 noundef 1, i32 noundef -2147483648)
  %6 = load i32, ptr @hf_control_cs_terminate_rfu, align 4
  %7 = tail call ptr @proto_tree_add_item(ptr noundef %1, i32 noundef %6, ptr noundef %0, i32 noundef %2, i32 noundef 1, i32 noundef -2147483648)
  %8 = add nuw nsw i32 %2, 1
  %9 = load i32, ptr @hf_control_cs_terminate_proc_count, align 4
  %10 = tail call ptr @proto_tree_add_item(ptr noundef %1, i32 noundef %9, ptr noundef %0, i32 noundef %8, i32 noundef 2, i32 noundef -2147483648)
  %11 = add nuw nsw i32 %2, 3
  %12 = load i32, ptr @hf_control_cs_terminate_error_code, align 4
  %13 = tail call ptr @proto_tree_add_item(ptr noundef %1, i32 noundef %12, ptr noundef %0, i32 noundef %11, i32 noundef 1, i32 noundef -2147483648)
  %14 = add nuw nsw i32 %2, 4
  ret i32 %14
}